target datalayout = "e-m:e-p270:32:32-p271:32:32-p272:64:64-i64:64-i128:128-f80:128-n8:16:32:64-S128"
target triple = "x86_64-pc-linux-gnu"

%"class.cv::Mat" = type { i32, i32, i32, i32, ptr, ptr, ptr, ptr, ptr, ptr, %"struct.cv::MatSize", %"struct.cv::MatStep" }
%"struct.cv::MatSize" = type { ptr }
%"struct.cv::MatStep" = type { ptr, [2 x i64] }
%"class.cv::_InputArray" = type { i32, ptr, %"class.cv::Size_" }
%"class.cv::Size_" = type { i32, i32 }
%"struct.cv::Ptr" = type { %"class.std::shared_ptr" }
%"class.std::shared_ptr" = type { %"class.std::__shared_ptr" }
%"class.std::__shared_ptr" = type { ptr, %"class.std::__shared_count" }
%"class.std::__shared_count" = type { ptr }
%"struct.cv::Ptr.5" = type { %"class.std::shared_ptr.6" }
%"class.std::shared_ptr.6" = type { %"class.std::__shared_ptr.7" }
%"class.std::__shared_ptr.7" = type { ptr, %"class.std::__shared_count" }

; Function Attrs: mustprogress nounwind uwtable
define linkonce_odr hidden noundef ptr @_ZNKSt12__shared_ptrIN2cv9FormatterELN9__gnu_cxx12_Lock_policyE2EE3getEv(ptr noundef nonnull align 8 dereferenceable(16) %0) #10 comdat align 2 {
  %2 = alloca ptr, align 8
  store ptr %0, ptr %2, align 8, !tbaa !115
  %3 = load ptr, ptr %2, align 8
  %4 = getelementptr inbounds nuw %"class.std::__shared_ptr.7", ptr %3, i32 0, i32 0
  %5 = load ptr, ptr %4, align 8, !tbaa !117
  ret ptr %5
}

; Function Attrs: inlinehint mustprogress uwtable
define linkonce_odr hidden void @_ZNK2cv11_InputArray6getMatEi(ptr dead_on_unwind noalias writable sret(%"class.cv::Mat") align 8 %0, ptr noundef nonnull align 8 dereferenceable(24) %1, i32 noundef %2) #7 comdat align 2 {
  %4 = alloca ptr, align 8
  %5 = alloca ptr, align 8
  %6 = alloca i32, align 4
  store ptr %0, ptr %4, align 8
  store ptr %1, ptr %5, align 8, !tbaa !63
  store i32 %2, ptr %6, align 4, !tbaa !4
  %7 = load ptr, ptr %5, align 8
  %8 = call noundef i32 @_ZNK2cv11_InputArray4kindEv(ptr noundef nonnull align 8 dereferenceable(24) %7)
  %9 = icmp eq i32 %8, 65536
  br i1 %9, label %10, label %16

10:                                               ; preds = %3
  %11 = load i32, ptr %6, align 4, !tbaa !4
  %12 = icmp slt i32 %11, 0
  br i1 %12, label %13, label %16

13:                                               ; preds = %10
  %14 = getelementptr inbounds nuw %"class.cv::_InputArray", ptr %7, i32 0, i32 1
  %15 = load ptr, ptr %14, align 8, !tbaa !144
  call void @_ZN2cv3MatC1ERKS0_(ptr noundef nonnull align 8 dereferenceable(96) %0, ptr noundef nonnull align 8 dereferenceable(96) %15)
  br label %18

16:                                               ; preds = %10, %3
  %17 = load i32, ptr %6, align 4, !tbaa !4
  call void @_ZNK2cv11_InputArray7getMat_Ei(ptr dead_on_unwind writable sret(%"class.cv::Mat") align 8 %0, ptr noundef nonnull align 8 dereferenceable(24) %7, i32 noundef %17)
  br label %18

18:                                               ; preds = %16, %13
  ret void
}

; Function Attrs: mustprogress nounwind uwtable
define linkonce_odr hidden noundef ptr @_ZNK2cv3PtrINS_9FormatterEEptEv(ptr noundef nonnull align 8 dereferenceable(16) %0) #10 comdat align 2 {
  %2 = alloca ptr, align 8
  store ptr %0, ptr %2, align 8, !tbaa !113
  %3 = load ptr, ptr %2, align 8
  %4 = call noundef ptr @_ZNKSt12__shared_ptrIN2cv9FormatterELN9__gnu_cxx12_Lock_policyE2EE3getEv(ptr noundef nonnull align 8 dereferenceable(16) %3) #3
  ret ptr %4
}

; Function Attrs: inlinehint mustprogress uwtable
define internal void @_ZN2cvL6formatERKNS_11_InputArrayENS_9Formatter10FormatTypeE(ptr dead_on_unwind noalias writable sret(%"struct.cv::Ptr") align 8 %0, ptr noundef nonnull align 8 dereferenceable(24) %1, i32 noundef %2) #7 personality ptr @__gxx_personality_v0 {
  %4 = alloca ptr, align 8
  %5 = alloca ptr, align 8
  %6 = alloca i32, align 4
  %7 = alloca %"struct.cv::Ptr.5", align 8
  %8 = alloca %"class.cv::Mat", align 8
  %9 = alloca ptr, align 8
  %10 = alloca i32, align 4
  store ptr %0, ptr %4, align 8
  store ptr %1, ptr %5, align 8, !tbaa !63
  store i32 %2, ptr %6, align 4, !tbaa !70
  call void @llvm.lifetime.start.p0(i64 16, ptr %7) #3
  %11 = load i32, ptr %6, align 4, !tbaa !70
  call void @_ZN2cv9Formatter3getENS0_10FormatTypeE(ptr dead_on_unwind writable sret(%"struct.cv::Ptr.5") align 8 %7, i32 noundef %11)
  %12 = call noundef ptr @_ZNK2cv3PtrINS_9FormatterEEptEv(ptr noundef nonnull align 8 dereferenceable(16) %7) #3
  call void @llvm.lifetime.start.p0(i64 96, ptr %8) #3
  %13 = load ptr, ptr %5, align 8, !tbaa !63
  invoke void @_ZNK2cv11_InputArray6getMatEi(ptr dead_on_unwind writable sret(%"class.cv::Mat") align 8 %8, ptr noundef nonnull align 8 dereferenceable(24) %13, i32 noundef -1)
          to label %14 unwind label %19

14:                                               ; preds = %3
  %15 = load ptr, ptr %12, align 8, !tbaa !33
  %16 = getelementptr inbounds ptr, ptr %15, i64 2
  %17 = load ptr, ptr %16, align 8
  invoke void %17(ptr dead_on_unwind writable sret(%"struct.cv::Ptr") align 8 %0, ptr noundef nonnull align 8 dereferenceable(8) %12, ptr noundef nonnull align 8 dereferenceable(96) %8)
          to label %18 unwind label %23

18:                                               ; preds = %14
  call void @_ZN2cv3MatD1Ev(ptr noundef nonnull align 8 dereferenceable(96) %8) #3
  call void @llvm.lifetime.end.p0(i64 96, ptr %8) #3
  call void @_ZNSt12__shared_ptrIN2cv9FormatterELN9__gnu_cxx12_Lock_policyE2EED2Ev(ptr noundef nonnull align 8 dereferenceable(16) %7) #3
  call void @llvm.lifetime.end.p0(i64 16, ptr %7) #3
  ret void

19:                                               ; preds = %3
  %20 = landingpad { ptr, i32 }
          cleanup
  %21 = extractvalue { ptr, i32 } %20, 0
  store ptr %21, ptr %9, align 8
  %22 = extractvalue { ptr, i32 } %20, 1
  store i32 %22, ptr %10, align 4
  br label %27

23:                                               ; preds = %14
  %24 = landingpad { ptr, i32 }
          cleanup
  %25 = extractvalue { ptr, i32 } %24, 0
  store ptr %25, ptr %9, align 8
  %26 = extractvalue { ptr, i32 } %24, 1
  store i32 %26, ptr %10, align 4
  call void @_ZN2cv3MatD1Ev(ptr noundef nonnull align 8 dereferenceable(96) %8) #3
  br label %27

27:                                               ; preds = %23, %19
  call void @llvm.lifetime.end.p0(i64 96, ptr %8) #3
  call void @_ZNSt12__shared_ptrIN2cv9FormatterELN9__gnu_cxx12_Lock_policyE2EED2Ev(ptr noundef nonnull align 8 dereferenceable(16) %7) #3
  call void @llvm.lifetime.end.p0(i64 16, ptr %7) #3
  br label %28

28:                                               ; preds = %27
  %29 = load ptr, ptr %9, align 8
  %30 = load i32, ptr %10, align 4
  %31 = insertvalue { ptr, i32 } poison, ptr %29, 0
  %32 = insertvalue { ptr, i32 } %31, i32 %30, 1
  resume { ptr, i32 } %32
}